target datalayout = "e-m:e-p270:32:32-p271:32:32-p272:64:64-i64:64-i128:128-f80:128-n8:16:32:64-S128"
target triple = "x86_64-pc-linux-gnu"

%"class.Imf_3_4::Zip" = type <{ i64, ptr, i32, [4 x i8] }>

@.str.1 = private unnamed_addr constant [27 x i8] c"Data decompression failed.\00", align 1
@_ZTIN7Iex_3_48InputExcE = external constant ptr
@_ZN7Imf_3_412_GLOBAL__N_111reconstructE = internal global ptr @_ZN7Imf_3_412_GLOBAL__N_118reconstruct_scalarEPcm, align 8
@_ZN7Imf_3_412_GLOBAL__N_110interleaveE = internal global ptr @_ZN7Imf_3_412_GLOBAL__N_117interleave_scalarEPKcmPc, align 8

; Function Attrs: mustprogress uwtable
define hidden noundef i32 @_ZN7Imf_3_43Zip10uncompressEPKciPc(ptr noundef nonnull align 8 dereferenceable(20) %0, ptr noundef %1, i32 noundef %2, ptr noundef %3) #0 align 2 personality ptr @__gxx_personality_v0 {
  %5 = alloca i32, align 4
  %6 = alloca ptr, align 8
  %7 = alloca ptr, align 8
  %8 = alloca i32, align 4
  %9 = alloca ptr, align 8
  %10 = alloca i64, align 8
  %11 = alloca ptr, align 8
  %12 = alloca i32, align 4
  %13 = alloca i32, align 4
  store ptr %0, ptr %6, align 8, !tbaa !3
  store ptr %1, ptr %7, align 8, !tbaa !17
  store i32 %2, ptr %8, align 4, !tbaa !10
  store ptr %3, ptr %9, align 8, !tbaa !17
  %14 = load ptr, ptr %6, align 8
  call void @llvm.lifetime.start.p0(i64 8, ptr %10) #11
  store i64 0, ptr %10, align 8, !tbaa !8
  %15 = load ptr, ptr %7, align 8, !tbaa !17
  %16 = load i32, ptr %8, align 4, !tbaa !10
  %17 = sext i32 %16 to i64
  %18 = getelementptr inbounds nuw %"class.Imf_3_4::Zip", ptr %14, i32 0, i32 1
  %19 = load ptr, ptr %18, align 8, !tbaa !15
  %20 = getelementptr inbounds nuw %"class.Imf_3_4::Zip", ptr %14, i32 0, i32 0
  %21 = load i64, ptr %20, align 8, !tbaa !12
  %22 = call i32 @exr_uncompress_buffer(ptr noundef null, ptr noundef %15, i64 noundef %17, ptr noundef %19, i64 noundef %21, ptr noundef %10)
  %23 = icmp ne i32 0, %22
  br i1 %23, label %24, label %31

24:                                               ; preds = %4
  %25 = call ptr @__cxa_allocate_exception(i64 72) #11
  invoke void @_ZN7Iex_3_48InputExcC1EPKc(ptr noundef nonnull align 8 dereferenceable(72) %25, ptr noundef @.str.1)
          to label %26 unwind label %27

26:                                               ; preds = %24
  call void @__cxa_throw(ptr %25, ptr @_ZTIN7Iex_3_48InputExcE, ptr @_ZN7Iex_3_48InputExcD1Ev) #12
  unreachable

27:                                               ; preds = %24
  %28 = landingpad { ptr, i32 }
          cleanup
  %29 = extractvalue { ptr, i32 } %28, 0
  store ptr %29, ptr %11, align 8
  %30 = extractvalue { ptr, i32 } %28, 1
  store i32 %30, ptr %12, align 4
  call void @__cxa_free_exception(ptr %25) #11
  call void @llvm.lifetime.end.p0(i64 8, ptr %10) #11
  br label %51

31:                                               ; preds = %4
  %32 = load i64, ptr %10, align 8, !tbaa !8
  %33 = icmp eq i64 %32, 0
  br i1 %33, label %34, label %37

34:                                               ; preds = %31
  %35 = load i64, ptr %10, align 8, !tbaa !8
  %36 = trunc i64 %35 to i32
  store i32 %36, ptr %5, align 4
  store i32 1, ptr %13, align 4
  br label %49

37:                                               ; preds = %31
  %38 = load ptr, ptr @_ZN7Imf_3_412_GLOBAL__N_111reconstructE, align 8, !tbaa !22
  %39 = getelementptr inbounds nuw %"class.Imf_3_4::Zip", ptr %14, i32 0, i32 1
  %40 = load ptr, ptr %39, align 8, !tbaa !15
  %41 = load i64, ptr %10, align 8, !tbaa !8
  call void %38(ptr noundef %40, i64 noundef %41)
  %42 = load ptr, ptr @_ZN7Imf_3_412_GLOBAL__N_110interleaveE, align 8, !tbaa !22
  %43 = getelementptr inbounds nuw %"class.Imf_3_4::Zip", ptr %14, i32 0, i32 1
  %44 = load ptr, ptr %43, align 8, !tbaa !15
  %45 = load i64, ptr %10, align 8, !tbaa !8
  %46 = load ptr, ptr %9, align 8, !tbaa !17
  call void %42(ptr noundef %44, i64 noundef %45, ptr noundef %46)
  %47 = load i64, ptr %10, align 8, !tbaa !8
  %48 = trunc i64 %47 to i32
  store i32 %48, ptr %5, align 4
  store i32 1, ptr %13, align 4
  br label %49

49:                                               ; preds = %37, %34
  call void @llvm.lifetime.end.p0(i64 8, ptr %10) #11
  %50 = load i32, ptr %5, align 4
  ret i32 %50

51:                                               ; preds = %27
  %52 = load ptr, ptr %11, align 8
  %53 = load i32, ptr %12, align 4
  %54 = insertvalue { ptr, i32 } poison, ptr %52, 0
  %55 = insertvalue { ptr, i32 } %54, i32 %53, 1
  resume { ptr, i32 } %55
}