; Function Attrs: mustprogress uwtable
define hidden noundef i32 @_ZN7Imf_3_43Zip10uncompressEPKciPc(ptr noundef nonnull readonly align 8 captures(none) dereferenceable(20) %0, ptr noundef %1, i32 noundef %2, ptr noundef %3) local_unnamed_addr #0 align 2 personality ptr @__gxx_personality_v0 {
  %5 = alloca i64, align 8
  call void @llvm.lifetime.start.p0(i64 8, ptr nonnull %5) #14
  store i64 0, ptr %5, align 8, !tbaa !17
  %6 = sext i32 %2 to i64
  %7 = getelementptr inbounds nuw i8, ptr %0, i64 8
  %8 = load ptr, ptr %7, align 8, !tbaa !11
  %9 = load i64, ptr %0, align 8, !tbaa !3
  %10 = call i32 @exr_uncompress_buffer(ptr noundef null, ptr noundef %1, i64 noundef %6, ptr noundef %8, i64 noundef %9, ptr noundef nonnull %5)
  %.not = icmp eq i32 %10, 0
  br i1 %.not, label %16, label %11

11:                                               ; preds = %4
  %12 = call ptr @__cxa_allocate_exception(i64 72) #14
  invoke void @_ZN7Iex_3_48InputExcC1EPKc(ptr noundef nonnull align 8 dereferenceable(72) %12, ptr noundef nonnull @.str.1)
          to label %13 unwind label %14

13:                                               ; preds = %11
  call void @__cxa_throw(ptr nonnull %12, ptr nonnull @_ZTIN7Iex_3_48InputExcE, ptr nonnull @_ZN7Iex_3_48InputExcD1Ev) #15
  unreachable

14:                                               ; preds = %11
  %15 = landingpad { ptr, i32 }
          cleanup
  call void @__cxa_free_exception(ptr nonnull %12) #14
  call void @llvm.lifetime.end.p0(i64 8, ptr nonnull %5) #14
  resume { ptr, i32 } %15

16:                                               ; preds = %4
  %17 = load i64, ptr %5, align 8, !tbaa !17
  %18 = icmp eq i64 %17, 0
  br i1 %18, label %32, label %19

19:                                               ; preds = %16
  %20 = load ptr, ptr %7, align 8, !tbaa !11
  %21 = getelementptr inbounds nuw i8, ptr %20, i64 %17
  %.not7 = icmp eq i64 %17, 1
  br i1 %.not7, label %_ZN7Imf_3_412_GLOBAL__N_118reconstruct_scalarEPcm.exit, label %.lr.ph.preheader.i

.lr.ph.preheader.i:                               ; preds = %19
  %.09.i = getelementptr inbounds nuw i8, ptr %20, i64 1
  %.pre.i = load i8, ptr %20, align 1, !tbaa !13
  br label %.lr.ph.i

.lr.ph.i:                                         ; preds = %.lr.ph.i, %.lr.ph.preheader.i
  %22 = phi i8 [ %25, %.lr.ph.i ], [ %.pre.i, %.lr.ph.preheader.i ]
  %.011.i = phi ptr [ %.0.i, %.lr.ph.i ], [ %.09.i, %.lr.ph.preheader.i ]
  %23 = load i8, ptr %.011.i, align 1, !tbaa !13
  %24 = add i8 %23, %22
  %25 = xor i8 %24, -128
  store i8 %25, ptr %.011.i, align 1, !tbaa !13
  %.0.i = getelementptr inbounds nuw i8, ptr %.011.i, i64 1
  %26 = icmp ult ptr %.0.i, %21
  br i1 %26, label %.lr.ph.i, label %_ZN7Imf_3_412_GLOBAL__N_118reconstruct_scalarEPcm.exit.loopexit, !llvm.loop !18

_ZN7Imf_3_412_GLOBAL__N_118reconstruct_scalarEPcm.exit.loopexit: ; preds = %.lr.ph.i
  %.pre = load ptr, ptr %7, align 8, !tbaa !11
  %.pre8 = load i64, ptr %5, align 8, !tbaa !17
  br label %_ZN7Imf_3_412_GLOBAL__N_118reconstruct_scalarEPcm.exit

_ZN7Imf_3_412_GLOBAL__N_118reconstruct_scalarEPcm.exit: ; preds = %_ZN7Imf_3_412_GLOBAL__N_118reconstruct_scalarEPcm.exit.loopexit, %19
  %27 = phi i64 [ %.pre8, %_ZN7Imf_3_412_GLOBAL__N_118reconstruct_scalarEPcm.exit.loopexit ], [ 1, %19 ]
  %28 = phi ptr [ %.pre, %_ZN7Imf_3_412_GLOBAL__N_118reconstruct_scalarEPcm.exit.loopexit ], [ %20, %19 ]
  %29 = load ptr, ptr @_ZN7Imf_3_412_GLOBAL__N_110interleaveE, align 8, !tbaa !19
  call void %29(ptr noundef %28, i64 noundef %27, ptr noundef %3), !callees !20
  %30 = load i64, ptr %5, align 8, !tbaa !17
  %31 = trunc i64 %30 to i32
  br label %32

32:                                               ; preds = %16, %_ZN7Imf_3_412_GLOBAL__N_118reconstruct_scalarEPcm.exit
  %.0 = phi i32 [ %31, %_ZN7Imf_3_412_GLOBAL__N_118reconstruct_scalarEPcm.exit ], [ 0, %16 ]
  call void @llvm.lifetime.end.p0(i64 8, ptr nonnull %5) #14
  ret i32 %.0
}